; Function Attrs: mustprogress uwtable
define void @_ZN4LIEF5MachO9FatBinary3rawEv(ptr dead_on_unwind noalias nonnull writable sret(%"class.std::vector.8") align 8 %0, ptr noundef nonnull align 8 dereferenceable(32) %1) local_unnamed_addr #7 align 2 personality ptr @__gxx_personality_v0 {
  tail call void @llvm.memset.p0.i64(ptr noundef nonnull align 8 dereferenceable(24) %0, i8 0, i64 24, i1 false)
  %3 = invoke i64 @_ZN4LIEF5MachO7Builder5writeERNS0_9FatBinaryERSt6vectorIhSaIhEE(ptr noundef nonnull align 8 dereferenceable(32) %1, ptr noundef nonnull align 8 dereferenceable(24) %0)
          to label %8 unwind label %4

4:                                                ; preds = %2
  %5 = landingpad { ptr, i32 }
          cleanup
  %6 = load ptr, ptr %0, align 8
  %.not.i.i.i = icmp eq ptr %6, null
  br i1 %.not.i.i.i, label %_ZNSt6vectorIhSaIhEED2Ev.exit, label %7

7:                                                ; preds = %4
  tail call void @_ZdlPv(ptr noundef nonnull %6) #13
  br label %_ZNSt6vectorIhSaIhEED2Ev.exit

_ZNSt6vectorIhSaIhEED2Ev.exit:                    ; preds = %4, %7
  resume { ptr, i32 } %5

8:                                                ; preds = %2
  ret void
}